target datalayout = "e-m:e-p270:32:32-p271:32:32-p272:64:64-i64:64-i128:128-f80:128-n8:16:32:64-S128"
target triple = "x86_64-pc-linux-gnu"

%class.AttachOperation = type <{ ptr, [17 x i8], [3 x [1025 x i8]], [4 x i8] }>

@.str.34 = private unnamed_addr constant [21 x i8] c"flag name is missing\00", align 1
@.str.38 = private unnamed_addr constant [18 x i8] c"no such flag '%s'\00", align 1

; Function Attrs: mustprogress nounwind uwtable
define linkonce_odr hidden noundef ptr @_ZN7JVMFlag9find_flagEPKc(ptr noundef %0) #1 comdat align 2 {
  %2 = alloca ptr, align 8
  store ptr %0, ptr %2, align 8
  %3 = load ptr, ptr %2, align 8
  %4 = load ptr, ptr %2, align 8
  %5 = call i64 @strlen(ptr noundef %4) #8
  %6 = call noundef ptr @_ZN7JVMFlag9find_flagEPKcmbb(ptr noundef %3, i64 noundef %5, i1 noundef zeroext false, i1 noundef zeroext false)
  ret ptr %6
}

; Function Attrs: mustprogress nounwind uwtable
define linkonce_odr hidden noundef ptr @_ZNK15AttachOperation3argEi(ptr noundef nonnull align 8 dereferenceable(3100) %0, i32 noundef %1) #1 comdat align 2 {
  %3 = alloca ptr, align 8
  %4 = alloca i32, align 4
  store ptr %0, ptr %3, align 8
  store i32 %1, ptr %4, align 4
  %5 = load ptr, ptr %3, align 8
  %6 = getelementptr inbounds %class.AttachOperation, ptr %5, i32 0, i32 2
  %7 = load i32, ptr %4, align 4
  %8 = sext i32 %7 to i64
  %9 = getelementptr inbounds [3 x [1025 x i8]], ptr %6, i64 0, i64 %8
  %10 = getelementptr inbounds [1025 x i8], ptr %9, i64 0, i64 0
  ret ptr %10
}

; Function Attrs: mustprogress nounwind uwtable
define internal noundef i32 @_ZL10print_flagP15AttachOperationP12outputStream(ptr noundef %0, ptr noundef %1) #1 {
  %3 = alloca i32, align 4
  %4 = alloca ptr, align 8
  %5 = alloca ptr, align 8
  %6 = alloca ptr, align 8
  %7 = alloca ptr, align 8
  store ptr %0, ptr %4, align 8
  store ptr %1, ptr %5, align 8
  store ptr null, ptr %6, align 8
  %8 = load ptr, ptr %4, align 8
  %9 = call noundef ptr @_ZNK15AttachOperation3argEi(ptr noundef nonnull align 8 dereferenceable(3100) %8, i32 noundef 0)
  store ptr %9, ptr %6, align 8
  %10 = icmp eq ptr %9, null
  br i1 %10, label %11, label %13

11:                                               ; preds = %2
  %12 = load ptr, ptr %5, align 8
  call void (ptr, ptr, ...) @_ZN12outputStream8print_crEPKcz(ptr noundef nonnull align 8 dereferenceable(56) %12, ptr noundef @.str.34)
  store i32 -1, ptr %3, align 4
  br label %26

13:                                               ; preds = %2
  %14 = load ptr, ptr %6, align 8
  %15 = call noundef ptr @_ZN7JVMFlag9find_flagEPKc(ptr noundef %14)
  store ptr %15, ptr %7, align 8
  %16 = load ptr, ptr %7, align 8
  %17 = icmp ne ptr %16, null
  br i1 %17, label %18, label %22

18:                                               ; preds = %13
  %19 = load ptr, ptr %7, align 8
  %20 = load ptr, ptr %5, align 8
  call void @_ZNK7JVMFlag13print_as_flagEP12outputStream(ptr noundef nonnull align 8 dereferenceable(24) %19, ptr noundef %20)
  %21 = load ptr, ptr %5, align 8
  call void @_ZN12outputStream2crEv(ptr noundef nonnull align 8 dereferenceable(56) %21)
  br label %25

22:                                               ; preds = %13
  %23 = load ptr, ptr %5, align 8
  %24 = load ptr, ptr %6, align 8
  call void (ptr, ptr, ...) @_ZN12outputStream8print_crEPKcz(ptr noundef nonnull align 8 dereferenceable(56) %23, ptr noundef @.str.38, ptr noundef %24)
  br label %25

25:                                               ; preds = %22, %18
  store i32 0, ptr %3, align 4
  br label %26

26:                                               ; preds = %25, %11
  %27 = load i32, ptr %3, align 4
  ret i32 %27
}