; Function Attrs: mustprogress nounwind uwtable
define internal noundef range(i32 -1, 1) i32 @_ZL10print_flagP15AttachOperationP12outputStream(ptr noundef %0, ptr noundef %1) #0 {
  %3 = getelementptr inbounds i8, ptr %0, i64 25
  %4 = tail call i64 @strlen(ptr noundef nonnull dereferenceable(1) %3) #9
  %5 = tail call noundef ptr @_ZN7JVMFlag9find_flagEPKcmbb(ptr noundef nonnull %3, i64 noundef %4, i1 noundef zeroext false, i1 noundef zeroext false) #8
  %.not = icmp eq ptr %5, null
  br i1 %.not, label %7, label %6

6:                                                ; preds = %2
  tail call void @_ZNK7JVMFlag13print_as_flagEP12outputStream(ptr noundef nonnull align 8 dereferenceable(24) %5, ptr noundef %1) #8
  tail call void @_ZN12outputStream2crEv(ptr noundef nonnull align 8 dereferenceable(56) %1) #8
  br label %8

7:                                                ; preds = %2
  tail call void (ptr, ptr, ...) @_ZN12outputStream8print_crEPKcz(ptr noundef nonnull align 8 dereferenceable(56) %1, ptr noundef nonnull @.str.38, ptr noundef nonnull %3) #8
  br label %8

8:                                                ; preds = %6, %7
  ret i32 0
}